target datalayout = "e-m:e-p270:32:32-p271:32:32-p272:64:64-i64:64-i128:128-f80:128-n8:16:32:64-S128"
target triple = "x86_64-pc-linux-gnu"

; Function Attrs: mustprogress uwtable
define hidden void @_ZN8AngleSet3setEdd(ptr noundef nonnull align 8 dereferenceable(8656) %0, double noundef %1, double noundef %2) #4 align 2 {
  %4 = alloca ptr, align 8
  %5 = alloca double, align 8
  %6 = alloca double, align 8
  store ptr %0, ptr %4, align 8, !tbaa !24
  store double %1, ptr %5, align 8, !tbaa !10
  store double %2, ptr %6, align 8, !tbaa !10
  %7 = load ptr, ptr %4, align 8
  %8 = load double, ptr %6, align 8, !tbaa !10
  %9 = load double, ptr %5, align 8, !tbaa !10
  %10 = fcmp ogt double %8, %9
  br i1 %10, label %11, label %14

11:                                               ; preds = %3
  %12 = load double, ptr %5, align 8, !tbaa !10
  %13 = load double, ptr %6, align 8, !tbaa !10
  call void @_ZN8AngleSet4_setEdd(ptr noundef nonnull align 8 dereferenceable(8656) %7, double noundef %12, double noundef %13)
  br label %17

14:                                               ; preds = %3
  %15 = load double, ptr %5, align 8, !tbaa !10
  call void @_ZN8AngleSet4_setEdd(ptr noundef nonnull align 8 dereferenceable(8656) %7, double noundef %15, double noundef 0x401921FB54442D18)
  %16 = load double, ptr %6, align 8, !tbaa !10
  call void @_ZN8AngleSet4_setEdd(ptr noundef nonnull align 8 dereferenceable(8656) %7, double noundef 0.000000e+00, double noundef %16)
  br label %17

17:                                               ; preds = %14, %11
  ret void
}