; Function Attrs: mustprogress uwtable
define hidden void @_ZN8AngleSet3setEdd(ptr noundef nonnull align 8 captures(none) dereferenceable(8656) %0, double noundef %1, double noundef %2) local_unnamed_addr #3 align 2 {
  %4 = fcmp ogt double %2, %1
  br i1 %4, label %6, label %5

5:                                                ; preds = %3
  tail call void @_ZN8AngleSet4_setEdd(ptr noundef nonnull align 8 dereferenceable(8656) %0, double noundef %1, double noundef 0x401921FB54442D18)
  br label %6

6:                                                ; preds = %3, %5
  %.sink = phi double [ 0.000000e+00, %5 ], [ %1, %3 ]
  tail call void @_ZN8AngleSet4_setEdd(ptr noundef nonnull align 8 dereferenceable(8656) %0, double noundef %.sink, double noundef %2)
  ret void
}